; Function Attrs: nounwind uwtable
define range(i32 0, 2) i32 @Abc_NtkFxchPerform(ptr noundef %0, i32 noundef %1, i32 noundef %2, i32 noundef %3) local_unnamed_addr #0 {
  %5 = tail call i32 @Abc_NtkFxCheck(ptr noundef %0) #22
  %.not = icmp eq i32 %5, 0
  br i1 %.not, label %.sink.split, label %6

6:                                                ; preds = %4
  %7 = tail call ptr @Abc_NtkFxRetrieve(ptr noundef %0) #22
  %8 = getelementptr i8, ptr %0, i64 32
  %.val = load ptr, ptr %8, align 8, !tbaa !72
  %9 = getelementptr i8, ptr %.val, i64 4
  %.val.val = load i32, ptr %9, align 4, !tbaa !84
  %10 = tail call i32 @Fxch_FastExtract(ptr noundef %7, i32 noundef %.val.val, i32 noundef %1, i32 noundef %2, i32 noundef %3)
  tail call void @Abc_NtkFxInsert(ptr noundef %0, ptr noundef %7) #22
  %11 = load i32, ptr %7, align 8, !tbaa !49
  %12 = icmp sgt i32 %11, 0
  %13 = getelementptr inbounds nuw i8, ptr %7, i64 8
  %.pre.i.i = load ptr, ptr %13, align 8, !tbaa !24
  br i1 %12, label %.lr.ph.i.i, label %._crit_edge.i.i

.lr.ph.i.i:                                       ; preds = %6, %21
  %14 = phi i32 [ %22, %21 ], [ %11, %6 ]
  %15 = phi ptr [ %23, %21 ], [ %.pre.i.i, %6 ]
  %indvars.iv.i.i = phi i64 [ %indvars.iv.next.i.i, %21 ], [ 0, %6 ]
  %16 = getelementptr inbounds nuw %struct.Vec_Int_t_, ptr %15, i64 %indvars.iv.i.i, i32 2
  %17 = load ptr, ptr %16, align 8, !tbaa !11
  %.not15.i.i = icmp eq ptr %17, null
  br i1 %.not15.i.i, label %21, label %18

18:                                               ; preds = %.lr.ph.i.i
  tail call void @free(ptr noundef nonnull %17) #22
  %19 = load ptr, ptr %13, align 8, !tbaa !24
  %20 = getelementptr inbounds nuw %struct.Vec_Int_t_, ptr %19, i64 %indvars.iv.i.i, i32 2
  store ptr null, ptr %20, align 8, !tbaa !11
  %.pre18.i.i = load i32, ptr %7, align 8, !tbaa !49
  br label %21

21:                                               ; preds = %18, %.lr.ph.i.i
  %22 = phi i32 [ %.pre18.i.i, %18 ], [ %14, %.lr.ph.i.i ]
  %23 = phi ptr [ %19, %18 ], [ %15, %.lr.ph.i.i ]
  %indvars.iv.next.i.i = add nuw nsw i64 %indvars.iv.i.i, 1
  %24 = sext i32 %22 to i64
  %25 = icmp slt i64 %indvars.iv.next.i.i, %24
  br i1 %25, label %.lr.ph.i.i, label %._crit_edge.thread.i.i, !llvm.loop !86

._crit_edge.i.i:                                  ; preds = %6
  %.not.i.i = icmp eq ptr %.pre.i.i, null
  br i1 %.not.i.i, label %Vec_WecFree.exit, label %._crit_edge.thread.i.i

._crit_edge.thread.i.i:                           ; preds = %21, %._crit_edge.i.i
  %26 = phi ptr [ %.pre.i.i, %._crit_edge.i.i ], [ %23, %21 ]
  tail call void @free(ptr noundef nonnull %26) #22
  br label %Vec_WecFree.exit

Vec_WecFree.exit:                                 ; preds = %._crit_edge.i.i, %._crit_edge.thread.i.i
  tail call void @free(ptr noundef nonnull %7) #22
  %27 = tail call i32 @Abc_NtkCheck(ptr noundef %0) #22
  %.not12 = icmp eq i32 %27, 0
  br i1 %.not12, label %.sink.split, label %28

.sink.split:                                      ; preds = %Vec_WecFree.exit, %4
  %str.1.sink = phi ptr [ @str, %4 ], [ @str.1, %Vec_WecFree.exit ]
  %.0.ph = phi i32 [ 0, %4 ], [ 1, %Vec_WecFree.exit ]
  %puts13 = tail call i32 @puts(ptr nonnull dereferenceable(1) %str.1.sink)
  br label %28

28:                                               ; preds = %.sink.split, %Vec_WecFree.exit
  %.0 = phi i32 [ 1, %Vec_WecFree.exit ], [ %.0.ph, %.sink.split ]
  ret i32 %.0
}